; Function Attrs: mustprogress uwtable
define hidden void @_ZN3p2t12SweepContext18MapTriangleToNodesERNS_8TriangleE(ptr noundef nonnull readonly align 8 captures(none) dereferenceable(200) %0, ptr noundef nonnull align 8 dereferenceable(57) %1) local_unnamed_addr #0 align 2 {
  %3 = getelementptr inbounds nuw i8, ptr %1, i64 32
  %4 = getelementptr inbounds nuw i8, ptr %0, i64 152
  %5 = getelementptr inbounds nuw i8, ptr %1, i64 8
  br label %7

6:                                                ; preds = %18
  ret void

7:                                                ; preds = %2, %18
  %indvars.iv = phi i64 [ 0, %2 ], [ %indvars.iv.next, %18 ]
  %8 = getelementptr inbounds nuw [3 x ptr], ptr %3, i64 0, i64 %indvars.iv
  %9 = load ptr, ptr %8, align 8
  %.not = icmp eq ptr %9, null
  br i1 %.not, label %10, label %18

10:                                               ; preds = %7
  %11 = load ptr, ptr %4, align 8
  %12 = getelementptr inbounds nuw [3 x ptr], ptr %5, i64 0, i64 %indvars.iv
  %13 = load ptr, ptr %12, align 8
  %14 = tail call noundef ptr @_ZN3p2t8Triangle7PointCWERKNS_5PointE(ptr noundef nonnull align 8 dereferenceable(57) %1, ptr noundef nonnull align 8 dereferenceable(40) %13)
  %15 = tail call noundef ptr @_ZN3p2t14AdvancingFront11LocatePointEPKNS_5PointE(ptr noundef nonnull align 8 dereferenceable(24) %11, ptr noundef %14)
  %.not11 = icmp eq ptr %15, null
  br i1 %.not11, label %18, label %16

16:                                               ; preds = %10
  %17 = getelementptr inbounds nuw i8, ptr %15, i64 8
  store ptr %1, ptr %17, align 8
  br label %18

18:                                               ; preds = %10, %16, %7
  %indvars.iv.next = add nuw nsw i64 %indvars.iv, 1
  %exitcond.not = icmp eq i64 %indvars.iv.next, 3
  br i1 %exitcond.not, label %6, label %7, !llvm.loop !9
}